; Function Attrs: mustprogress uwtable
define void @_ZNK32pxrInternal_v0_24__pxrReserved__22SdfPredicateExpression4WalkENS_13TfFunctionRefIFvNS0_2OpEiEEENS1_IFvRKNS0_6FnCallEEEE(ptr nocapture noundef nonnull readonly align 8 dereferenceable(80) %0, ptr %1, ptr %2, ptr %3, ptr nocapture readonly %4) local_unnamed_addr #0 align 2 {
  %6 = alloca %"class.pxrInternal_v0_24__pxrReserved__::TfFunctionRef.22", align 8
  %7 = alloca %class.anon, align 8
  store ptr %1, ptr %6, align 8
  %8 = getelementptr inbounds nuw i8, ptr %6, i64 8
  store ptr %2, ptr %8, align 8
  store ptr %6, ptr %7, align 8
  call void @_ZNK32pxrInternal_v0_24__pxrReserved__22SdfPredicateExpression15WalkWithOpStackENS_13TfFunctionRefIFvRKSt6vectorISt4pairINS0_2OpEiESaIS5_EEEEENS1_IFvRKNS0_6FnCallEEEE(ptr noundef nonnull align 8 dereferenceable(80) %0, ptr nonnull %7, ptr nonnull @"_ZN32pxrInternal_v0_24__pxrReserved__13TfFunctionRefIFvRKSt6vectorISt4pairINS_22SdfPredicateExpression2OpEiESaIS5_EEEE9_InvokeFnIZNKS3_4WalkENS0_IFvS4_iEEENS0_IFvRKNS3_6FnCallEEEEE3$_0EEvPKvS9_", ptr %3, ptr %4)
  ret void
}